; ModuleID = 'source-C-CXX/51/2168.c'
source_filename = "source-C-CXX/51/2168.c"
target datalayout = "e-m:e-p270:32:32-p271:32:32-p272:64:64-i64:64-f80:128-n8:16:32:64-S128"
target triple = "x86_64-pc-linux-gnu"

@.str = private unnamed_addr constant [5 x i8] c"%d%d\00", align 1
@.str.1 = private unnamed_addr constant [3 x i8] c"%d\00", align 1
@.str.2 = private unnamed_addr constant [4 x i8] c"%d \00", align 1

; Function Attrs: nofree nounwind sspstrong uwtable
define dso_local void @main() local_unnamed_addr #0 {
  %1 = alloca i32, align 4
  %2 = alloca i32, align 4
  %3 = alloca [101 x i32], align 16
  %4 = alloca [101 x i32], align 16
  %5 = bitcast i32* %1 to i8*
  call void @llvm.lifetime.start.p0i8(i64 4, i8* nonnull %5) #3
  %6 = bitcast i32* %2 to i8*
  call void @llvm.lifetime.start.p0i8(i64 4, i8* nonnull %6) #3
  %7 = bitcast [101 x i32]* %3 to i8*
  call void @llvm.lifetime.start.p0i8(i64 404, i8* nonnull %7) #3
  %8 = bitcast [101 x i32]* %4 to i8*
  call void @llvm.lifetime.start.p0i8(i64 404, i8* nonnull %8) #3
  %9 = call i32 (i8*, ...) @__isoc99_scanf(i8* getelementptr inbounds ([5 x i8], [5 x i8]* @.str, i64 0, i64 0), i32* nonnull %1, i32* nonnull %2)
  %10 = load i32, i32* %1, align 4, !tbaa !5
  %11 = icmp sgt i32 %10, 0
  br i1 %11, label %17, label %12

12:                                               ; preds = %0
  %13 = add nsw i32 %10, -1
  br label %46

14:                                               ; preds = %17
  %15 = add nsw i32 %24, -1
  %16 = icmp sgt i32 %24, 1
  br i1 %16, label %34, label %46

17:                                               ; preds = %0, %17
  %18 = phi i64 [ %31, %17 ], [ 0, %0 ]
  %19 = getelementptr inbounds [101 x i32], [101 x i32]* %3, i64 0, i64 %18
  %20 = call i32 (i8*, ...) @__isoc99_scanf(i8* getelementptr inbounds ([3 x i8], [3 x i8]* @.str.1, i64 0, i64 0), i32* nonnull %19)
  %21 = load i32, i32* %2, align 4, !tbaa !5
  %22 = trunc i64 %18 to i32
  %23 = add nsw i32 %21, %22
  %24 = load i32, i32* %1, align 4, !tbaa !5
  %25 = icmp slt i32 %23, %24
  %26 = load i32, i32* %19, align 4, !tbaa !5
  %27 = select i1 %25, i32 0, i32 %24
  %28 = sub nsw i32 %23, %27
  %29 = sext i32 %28 to i64
  %30 = getelementptr inbounds [101 x i32], [101 x i32]* %4, i64 0, i64 %29
  store i32 %26, i32* %30, align 4, !tbaa !5
  %31 = add nuw nsw i64 %18, 1
  %32 = sext i32 %24 to i64
  %33 = icmp slt i64 %31, %32
  br i1 %33, label %17, label %14, !llvm.loop !9

34:                                               ; preds = %14, %34
  %35 = phi i64 [ %39, %34 ], [ 0, %14 ]
  %36 = getelementptr inbounds [101 x i32], [101 x i32]* %4, i64 0, i64 %35
  %37 = load i32, i32* %36, align 4, !tbaa !5
  %38 = call i32 (i8*, ...) @printf(i8* nonnull dereferenceable(1) getelementptr inbounds ([4 x i8], [4 x i8]* @.str.2, i64 0, i64 0), i32 %37)
  %39 = add nuw nsw i64 %35, 1
  %40 = load i32, i32* %1, align 4, !tbaa !5
  %41 = add nsw i32 %40, -1
  %42 = sext i32 %41 to i64
  %43 = icmp slt i64 %39, %42
  br i1 %43, label %34, label %44, !llvm.loop !11

44:                                               ; preds = %34
  %45 = trunc i64 %39 to i32
  br label %46

46:                                               ; preds = %12, %44, %14
  %47 = phi i32 [ 0, %14 ], [ %45, %44 ], [ 0, %12 ]
  %48 = phi i32 [ %15, %14 ], [ %41, %44 ], [ %13, %12 ]
  %49 = icmp eq i32 %47, %48
  br i1 %49, label %50, label %55

50:                                               ; preds = %46
  %51 = zext i32 %47 to i64
  %52 = getelementptr inbounds [101 x i32], [101 x i32]* %4, i64 0, i64 %51
  %53 = load i32, i32* %52, align 4, !tbaa !5
  %54 = call i32 (i8*, ...) @printf(i8* nonnull dereferenceable(1) getelementptr inbounds ([3 x i8], [3 x i8]* @.str.1, i64 0, i64 0), i32 %53)
  br label %55

55:                                               ; preds = %50, %46
  call void @llvm.lifetime.end.p0i8(i64 404, i8* nonnull %8) #3
  call void @llvm.lifetime.end.p0i8(i64 404, i8* nonnull %7) #3
  call void @llvm.lifetime.end.p0i8(i64 4, i8* nonnull %6) #3
  call void @llvm.lifetime.end.p0i8(i64 4, i8* nonnull %5) #3
  ret void
}

; Function Attrs: argmemonly mustprogress nofree nosync nounwind willreturn
declare void @llvm.lifetime.start.p0i8(i64 immarg, i8* nocapture) #1

; Function Attrs: nofree nounwind
declare noundef i32 @__isoc99_scanf(i8* nocapture noundef readonly, ...) local_unnamed_addr #2

; Function Attrs: nofree nounwind
declare noundef i32 @printf(i8* nocapture noundef readonly, ...) local_unnamed_addr #2

; Function Attrs: argmemonly mustprogress nofree nosync nounwind willreturn
declare void @llvm.lifetime.end.p0i8(i64 immarg, i8* nocapture) #1


!llvm.module.flags = !{!0, !1, !2, !3}
!llvm.ident = !{!4}

!0 = !{i32 1, !"wchar_size", i32 4}
!1 = !{i32 7, !"PIC Level", i32 2}
!2 = !{i32 7, !"PIE Level", i32 2}
!3 = !{i32 7, !"uwtable", i32 1}
!4 = !{!"clang version 13.0.0"}
!5 = !{!6, !6, i64 0}
!6 = !{!"int", !7, i64 0}
!7 = !{!"omnipotent char", !8, i64 0}
!8 = !{!"Simple C/C++ TBAA"}
!9 = distinct !{!9, !10}
!10 = !{!"llvm.loop.mustprogress"}
!11 = distinct !{!11, !10}
